target datalayout = "e-m:e-p270:32:32-p271:32:32-p272:64:64-i64:64-i128:128-f80:128-n8:16:32:64-S128"
target triple = "x86_64-pc-linux-gnu"

%struct.DdNode = type { i32, i32, ptr, %union.anon, i64 }
%union.anon = type { %struct.DdChildren }
%struct.DdChildren = type { ptr, ptr }
%struct.DdManager = type { %struct.DdNode, ptr, ptr, ptr, ptr, ptr, ptr, ptr, i32, i32, double, double, double, i32, i32, i32, i32, i32, i32, ptr, ptr, %struct.DdSubtable, i32, i32, i32, i32, i32, i32, i32, double, i32, i32, i32, ptr, i64, double, i32, ptr, ptr, ptr, ptr, ptr, ptr, ptr, i32, ptr, ptr, ptr, ptr, ptr, ptr, i32, i32, i32, double, i32, i32, i32, i32, double, double, i32, i32, i32, i32, i32, i32, i32, i32, i32, ptr, ptr, i32, i32, i32, i32, i32, i32, ptr, ptr, ptr, ptr, ptr, ptr, ptr, ptr, i32, i64, i64, i64, i32, i64, i64, double, double, double, double, double, double, i32, ptr, ptr, i64 }
%struct.DdSubtable = type { ptr, i32, i32, i32, i32, i32, i32, i32, i32, i32, i32, i32 }

; Function Attrs: nounwind uwtable
define ptr @Cudd_addFindMin(ptr noundef %0, ptr noundef %1) #0 {
  %3 = alloca ptr, align 8
  %4 = alloca ptr, align 8
  %5 = alloca ptr, align 8
  %6 = alloca ptr, align 8
  %7 = alloca ptr, align 8
  %8 = alloca ptr, align 8
  %9 = alloca i32, align 4
  store ptr %0, ptr %4, align 8, !tbaa !3
  store ptr %1, ptr %5, align 8, !tbaa !8
  call void @llvm.lifetime.start.p0(i64 8, ptr %6) #3
  call void @llvm.lifetime.start.p0(i64 8, ptr %7) #3
  call void @llvm.lifetime.start.p0(i64 8, ptr %8) #3
  %10 = load ptr, ptr %5, align 8, !tbaa !8
  %11 = getelementptr inbounds nuw %struct.DdNode, ptr %10, i32 0, i32 0
  %12 = load i32, ptr %11, align 8, !tbaa !10
  %13 = icmp eq i32 %12, 2147483647
  br i1 %13, label %14, label %16

14:                                               ; preds = %2
  %15 = load ptr, ptr %5, align 8, !tbaa !8
  store ptr %15, ptr %3, align 8
  store i32 1, ptr %9, align 4
  br label %62

16:                                               ; preds = %2
  %17 = load ptr, ptr %4, align 8, !tbaa !3
  %18 = load ptr, ptr %5, align 8, !tbaa !8
  %19 = call ptr @cuddCacheLookup1(ptr noundef %17, ptr noundef @Cudd_addFindMin, ptr noundef %18)
  store ptr %19, ptr %8, align 8, !tbaa !8
  %20 = load ptr, ptr %8, align 8, !tbaa !8
  %21 = icmp ne ptr %20, null
  br i1 %21, label %22, label %24

22:                                               ; preds = %16
  %23 = load ptr, ptr %8, align 8, !tbaa !8
  store ptr %23, ptr %3, align 8
  store i32 1, ptr %9, align 4
  br label %62

24:                                               ; preds = %16
  %25 = load ptr, ptr %4, align 8, !tbaa !3
  %26 = load ptr, ptr %5, align 8, !tbaa !8
  %27 = getelementptr inbounds nuw %struct.DdNode, ptr %26, i32 0, i32 3
  %28 = getelementptr inbounds nuw %struct.DdChildren, ptr %27, i32 0, i32 0
  %29 = load ptr, ptr %28, align 8, !tbaa !14
  %30 = call ptr @Cudd_addFindMin(ptr noundef %25, ptr noundef %29)
  store ptr %30, ptr %6, align 8, !tbaa !8
  %31 = load ptr, ptr %6, align 8, !tbaa !8
  %32 = load ptr, ptr %4, align 8, !tbaa !3
  %33 = getelementptr inbounds nuw %struct.DdManager, ptr %32, i32 0, i32 4
  %34 = load ptr, ptr %33, align 8, !tbaa !29
  %35 = icmp eq ptr %31, %34
  br i1 %35, label %36, label %38

36:                                               ; preds = %24
  %37 = load ptr, ptr %6, align 8, !tbaa !8
  store ptr %37, ptr %3, align 8
  store i32 1, ptr %9, align 4
  br label %62

38:                                               ; preds = %24
  %39 = load ptr, ptr %4, align 8, !tbaa !3
  %40 = load ptr, ptr %5, align 8, !tbaa !8
  %41 = getelementptr inbounds nuw %struct.DdNode, ptr %40, i32 0, i32 3
  %42 = getelementptr inbounds nuw %struct.DdChildren, ptr %41, i32 0, i32 1
  %43 = load ptr, ptr %42, align 8, !tbaa !14
  %44 = call ptr @Cudd_addFindMin(ptr noundef %39, ptr noundef %43)
  store ptr %44, ptr %7, align 8, !tbaa !8
  %45 = load ptr, ptr %6, align 8, !tbaa !8
  %46 = getelementptr inbounds nuw %struct.DdNode, ptr %45, i32 0, i32 3
  %47 = load double, ptr %46, align 8, !tbaa !14
  %48 = load ptr, ptr %7, align 8, !tbaa !8
  %49 = getelementptr inbounds nuw %struct.DdNode, ptr %48, i32 0, i32 3
  %50 = load double, ptr %49, align 8, !tbaa !14
  %51 = fcmp ole double %47, %50
  br i1 %51, label %52, label %54

52:                                               ; preds = %38
  %53 = load ptr, ptr %6, align 8, !tbaa !8
  br label %56

54:                                               ; preds = %38
  %55 = load ptr, ptr %7, align 8, !tbaa !8
  br label %56

56:                                               ; preds = %54, %52
  %57 = phi ptr [ %53, %52 ], [ %55, %54 ]
  store ptr %57, ptr %8, align 8, !tbaa !8
  %58 = load ptr, ptr %4, align 8, !tbaa !3
  %59 = load ptr, ptr %5, align 8, !tbaa !8
  %60 = load ptr, ptr %8, align 8, !tbaa !8
  call void @cuddCacheInsert1(ptr noundef %58, ptr noundef @Cudd_addFindMin, ptr noundef %59, ptr noundef %60)
  %61 = load ptr, ptr %8, align 8, !tbaa !8
  store ptr %61, ptr %3, align 8
  store i32 1, ptr %9, align 4
  br label %62

62:                                               ; preds = %56, %36, %22, %14
  call void @llvm.lifetime.end.p0(i64 8, ptr %8) #3
  call void @llvm.lifetime.end.p0(i64 8, ptr %7) #3
  call void @llvm.lifetime.end.p0(i64 8, ptr %6) #3
  %63 = load ptr, ptr %3, align 8
  ret ptr %63
}